; Function Attrs: mustprogress uwtable
define void @_ZN7Imf_3_46HeaderC2EiifRKN9Imath_3_24Vec2IfEEfNS_9LineOrderENS_11CompressionE(ptr noundef nonnull align 8 dereferenceable(49) initializes((0, 24)) %0, i32 noundef %1, i32 noundef %2, float noundef %3, ptr noundef nonnull align 4 dereferenceable(8) %4, float noundef %5, i32 noundef %6, i32 noundef %7) unnamed_addr #5 align 2 personality ptr @__gxx_personality_v0 {
  %9 = alloca %"class.Imath_3_2::Box", align 4
  %10 = getelementptr inbounds nuw i8, ptr %0, i64 8
  %11 = getelementptr inbounds nuw i8, ptr %0, i64 24
  tail call void @llvm.memset.p0.i64(ptr noundef nonnull align 8 dereferenceable(24) %0, i8 0, i64 24, i1 false)
  store ptr %10, ptr %11, align 8, !tbaa !3
  %12 = getelementptr inbounds nuw i8, ptr %0, i64 32
  store ptr %10, ptr %12, align 8, !tbaa !12
  %13 = getelementptr inbounds nuw i8, ptr %0, i64 40
  store i64 0, ptr %13, align 8, !tbaa !13
  %14 = getelementptr inbounds nuw i8, ptr %0, i64 48
  store i8 0, ptr %14, align 8, !tbaa !14
  %15 = icmp slt i32 %1, 1
  %16 = icmp slt i32 %2, 1
  %or.cond.i = or i1 %15, %16
  br i1 %or.cond.i, label %17, label %_ZN7Imf_3_412_GLOBAL__N_124sanityCheckDisplayWindowEii.exit

17:                                               ; preds = %8
  %18 = tail call ptr @__cxa_allocate_exception(i64 72) #29
  invoke void @_ZN7Iex_3_46ArgExcC1EPKc(ptr noundef nonnull align 8 dereferenceable(72) %18, ptr noundef nonnull @.str.37)
          to label %19 unwind label %20

19:                                               ; preds = %17
  invoke void @__cxa_throw(ptr nonnull %18, ptr nonnull @_ZTIN7Iex_3_46ArgExcE, ptr nonnull @_ZN7Iex_3_46ArgExcD1Ev) #30
          to label %.noexc unwind label %29

.noexc:                                           ; preds = %19
  unreachable

20:                                               ; preds = %17
  %21 = landingpad { ptr, i32 }
          cleanup
  tail call void @__cxa_free_exception(ptr nonnull %18) #29
  br label %.body

_ZN7Imf_3_412_GLOBAL__N_124sanityCheckDisplayWindowEii.exit: ; preds = %8
  invoke void @_ZN7Imf_3_416staticInitializeEv()
          to label %22 unwind label %29

22:                                               ; preds = %_ZN7Imf_3_412_GLOBAL__N_124sanityCheckDisplayWindowEii.exit
  call void @llvm.lifetime.start.p0(i64 16, ptr nonnull %9) #29
  %23 = add nsw i32 %1, -1
  %24 = add nsw i32 %2, -1
  %25 = getelementptr inbounds nuw i8, ptr %9, i64 8
  store i32 0, ptr %9, align 4, !tbaa !22
  %26 = getelementptr inbounds nuw i8, ptr %9, i64 4
  store i32 0, ptr %26, align 4, !tbaa !25
  store i32 %23, ptr %25, align 4, !tbaa !22
  %27 = getelementptr inbounds nuw i8, ptr %9, i64 12
  store i32 %24, ptr %27, align 4, !tbaa !25
  invoke fastcc void @_ZN7Imf_3_412_GLOBAL__N_110initializeERNS_6HeaderERKN9Imath_3_23BoxINS3_4Vec2IiEEEES9_fRKNS5_IfEEfNS_9LineOrderENS_11CompressionE(ptr noundef nonnull align 8 dereferenceable(49) %0, ptr noundef nonnull align 4 dereferenceable(16) %9, ptr noundef nonnull align 4 dereferenceable(16) %9, float noundef %3, ptr noundef nonnull align 4 dereferenceable(8) %4, float noundef %5, i32 noundef %6, i32 noundef %7)
          to label %28 unwind label %31

28:                                               ; preds = %22
  call void @llvm.lifetime.end.p0(i64 16, ptr nonnull %9) #29
  ret void

29:                                               ; preds = %19, %_ZN7Imf_3_412_GLOBAL__N_124sanityCheckDisplayWindowEii.exit
  %30 = landingpad { ptr, i32 }
          cleanup
  br label %.body

31:                                               ; preds = %22
  %32 = landingpad { ptr, i32 }
          cleanup
  call void @llvm.lifetime.end.p0(i64 16, ptr nonnull %9) #29
  br label %.body

.body:                                            ; preds = %29, %20, %31
  %.pn = phi { ptr, i32 } [ %32, %31 ], [ %30, %29 ], [ %21, %20 ]
  call void @_ZNSt3mapIN7Imf_3_44NameEPNS0_9AttributeESt4lessIS1_ESaISt4pairIKS1_S3_EEED2Ev(ptr noundef nonnull align 8 dereferenceable(48) %0) #29
  resume { ptr, i32 } %.pn
}